Certificate:
    Data:
        Version: 3 (0x2)
        Serial Number: 23 (0x17)
        Signature Algorithm: sha1WithRSAEncryption
        Issuer: CN=Westpoint Certificate Test CA, ST=Lancashire, C=UK/emailAddress=ca@example.com, O=Westpoint Certificate Test Root Certification Authority
        Validity
            Not Before: Jul 31 21:01:18 2011 GMT
            Not After : Jul 28 21:01:18 2021 GMT
        Subject: CN=127.0.0.1, ST=Lancashire, C=UK/emailAddress=test@example.com, O=Some organisation
        Subject Public Key Info:
            Public Key Algorithm: rsaEncryption
                Public-Key: (1024 bit)
                Modulus:
                    00:ae:80:d1:26:6c:67:a3:bc:1d:e9:9f:07:81:05:
                    ff:aa:03:4f:6a:b9:ac:6d:32:88:f9:d8:c0:2a:24:
                    40:53:ac:d4:02:41:e7:b0:c8:d3:7d:3c:cd:ac:ac:
                    32:96:9a:ce:c7:20:df:db:92:25:4f:f3:ce:09:b5:
                    d1:21:59:0b:69:8b:3f:a0:62:b5:7b:1c:b2:97:65:
                    80:31:88:56:ec:76:8e:28:8e:47:21:09:30:4e:fc:
                    3b:e0:12:34:8c:e1:94:64:bd:90:f3:b0:34:d4:98:
                    d0:e0:b8:b7:ba:a5:ba:a3:33:f9:97:65:ef:a9:93:
                    69:f4:5f:22:8b:0a:37:4b:e9
                Exponent: 65537 (0x10001)
        X509v3 extensions:
            X509v3 Basic Constraints: 
                CA:FALSE
            Authority Information Access: 
                OCSP - URI:http://ocsp.example.com:8888/

    Signature Algorithm: sha1WithRSAEncryption
        5a:7f:89:00:12:34:a8:b4:8e:24:26:4c:59:14:90:41:42:e4:
        d1:5b:a9:12:2e:40:8a:9a:ce:f6:64:62:e1:8f:b8:70:50:8a:
        b7:61:3f:5e:58:70:69:95:c2:41:a9:c4:0e:09:47:0b:9b:76:
        78:b9:52:d6:f4:57:33:9d:ff:1b:43:14:37:ac:91:71:65:91:
        3b:73:7e:a6:19:5c:39:cc:2e:48:18:dc:78:74:75:7f:20:8e:
        a7:f2:08:97:4d:4d:8a:24:37:3a:03:f0:5c:6e:49:74:09:e8:
        c2:81:46:36:d1:23:c2:02:4c:16:bd:d0:1d:8a:73:da:cc:73:
        d5:2b:11:9a:1d:3a:a1:c7:bc:90:54:3f:ef:e3:2f:ef:85:d6:
        a9:62:30:c2:1b:dc:b7:a0:bb:fd:19:e4:c8:0d:96:ce:a6:c5:
        95:74:5b:a6:35:c9:ca:d4:4a:ef:bf:d1:9f:f7:ad:18:e6:97:
        55:d5:3d:a7:85:33:a0:39:83:76:cd:a5:19:e3:e8:fd:99:50:
        89:27:6a:30:cd:04:a9:89:87:5e:57:0d:85:8c:92:1a:26:99:
        46:16:17:c6:26:4b:04:13:cc:4a:3b:fd:80:00:17:3c:88:ce:
        ab:1d:0d:ce:be:54:c4:8f:46:11:d0:85:aa:4f:35:a6:e6:77:
        b1:04:9a:37
-----BEGIN CERTIFICATE-----
MIIDXjCCAkagAwIBAgIBFzANBgkqhkiG9w0BAQUFADCBqzEmMCQGA1UEAxMdV2Vz
dHBvaW50IENlcnRpZmljYXRlIFRlc3QgQ0ExEzARBgNVBAgTCkxhbmNhc2hpcmUx
CzAJBgNVBAYTAlVLMR0wGwYJKoZIhvcNAQkBFg5jYUBleGFtcGxlLmNvbTFAMD4G
A1UEChM3V2VzdHBvaW50IENlcnRpZmljYXRlIFRlc3QgUm9vdCBDZXJ0aWZpY2F0
aW9uIEF1dGhvcml0eTAeFw0xMTA3MzEyMTAxMThaFw0yMTA3MjgyMTAxMThaMHMx
EjAQBgNVBAMTCTEyNy4wLjAuMTETMBEGA1UECBMKTGFuY2FzaGlyZTELMAkGA1UE
BhMCVUsxHzAdBgkqhkiG9w0BCQEWEHRlc3RAZXhhbXBsZS5jb20xGjAYBgNVBAoT
EVNvbWUgb3JnYW5pc2F0aW9uMIGfMA0GCSqGSIb3DQEBAQUAA4GNADCBiQKBgQCu
gNEmbGejvB3pnweBBf+qA09quaxtMoj52MAqJEBTrNQCQeewyNN9PM2srDKWms7H
IN/bkiVP884JtdEhWQtpiz+gYrV7HLKXZYAxiFbsdo4ojkchCTBO/DvgEjSM4ZRk
vZDzsDTUmNDguLe6pbqjM/mXZe+pk2n0XyKLCjdL6QIDAQABo0gwRjAJBgNVHRME
AjAAMDkGCCsGAQUFBwEBBC0wKzApBggrBgEFBQcwAYYdaHR0cDovL29jc3AuZXhh
bXBsZS5jb206ODg4OC8wDQYJKoZIhvcNAQEFBQADggEBAFp/iQASNKi0jiQmTFkU
kEFC5NFbqRIuQIqazvZkYuGPuHBQirdhP15YcGmVwkGpxA4JRwubdni5Utb0VzOd
/xtDFDeskXFlkTtzfqYZXDnMLkgY3Hh0dX8gjqfyCJdNTYokNzoD8FxuSXQJ6MKB
RjbRI8ICTBa90B2Kc9rMc9UrEZodOqHHvJBUP+/jL++F1qliMMIb3Legu/0Z5MgN
ls6mxZV0W6Y1ycrUSu+/0Z/3rRjml1XVPaeFM6A5g3bNpRnj6P2ZUIknajDNBKmJ
h15XDYWMkhommUYWF8YmSwQTzEo7/YAAFzyIzqsdDc6+VMSPRhHQhapPNabmd7EE
mjc=
-----END CERTIFICATE-----
