Certificate:
    Data:
        Version: 3 (0x2)
        Serial Number: 23 (0x17)
        Signature Algorithm: sha1WithRSAEncryption
        Issuer: CN=Westpoint Certificate Test CA, ST=Lancashire, C=UK/emailAddress=ca@example.com, O=Westpoint Certificate Test Root Certification Authority
        Validity
            Not Before: Jun 21 21:32:20 2011 GMT
            Not After : Jun 18 21:32:20 2021 GMT
        Subject: CN=127.0.0.1, ST=Lancashire, C=UK/emailAddress=test@example.com, O=Some organisation
        Subject Public Key Info:
            Public Key Algorithm: rsaEncryption
                Public-Key: (1024 bit)
                Modulus:
                    00:d9:c3:f3:e7:50:b4:9f:af:ec:63:86:09:c7:3d:
                    ea:12:36:98:d1:7b:e4:aa:15:ff:0c:4c:67:4b:06:
                    2c:fb:dd:0b:27:cb:f1:e8:c1:27:6c:d1:79:83:2a:
                    c2:3e:62:20:8f:f2:83:b4:34:50:26:89:8d:13:8c:
                    3b:89:21:0e:e8:c8:7b:1e:92:cf:71:1e:4c:1e:74:
                    56:51:56:05:56:7e:b0:17:19:b7:41:ac:e3:ad:44:
                    81:97:85:7f:c0:21:ec:0a:20:48:62:78:30:74:9e:
                    89:09:be:16:2b:13:50:23:26:02:9c:96:a8:2e:c4:
                    4c:9f:c7:70:46:ca:c2:f2:11
                Exponent: 65537 (0x10001)
        X509v3 extensions:
            X509v3 Basic Constraints: 
                CA:FALSE
            Authority Information Access: 
                OCSP - URI:http://ocsp.example.com:8888/

    Signature Algorithm: sha1WithRSAEncryption
        61:0e:46:bc:da:ca:96:8b:d8:58:36:85:1d:b5:ba:4b:e8:70:
        ae:e0:a2:69:b1:a9:36:ba:8d:d9:28:bd:a5:db:a4:8e:f1:2f:
        f1:83:5c:50:3b:2c:fd:19:07:17:4e:e9:94:09:35:37:4f:6f:
        a5:29:00:e4:e5:0e:75:2a:d5:eb:03:d4:c3:e6:6e:9f:e6:06:
        77:7a:50:28:2e:87:da:90:a0:1c:f8:9a:24:61:15:f4:9a:b4:
        ea:63:d3:7e:e6:3d:aa:d1:1a:fe:b5:07:53:89:26:1c:40:ec:
        7f:3b:f0:6c:25:30:3c:a6:7c:b1:e1:c4:5c:c9:f4:ba:54:2f:
        9e:f1:8d:c9:7f:66:9c:6f:84:4e:3f:aa:5b:e3:39:db:1d:20:
        3f:ab:5c:28:76:b2:15:23:ec:40:dd:28:cf:19:69:5c:12:f7:
        c9:80:eb:92:10:53:99:56:f0:d6:54:e0:85:a3:e6:3e:a3:7b:
        17:e8:6e:a4:32:6f:d1:78:f1:25:69:0e:34:37:6b:d5:de:a1:
        94:fa:a6:7a:b3:73:f3:ad:82:13:81:9d:37:42:af:76:4c:0b:
        8c:fe:75:69:5f:07:74:42:ee:e3:83:ed:b0:b3:a0:b4:d3:c6:
        06:f5:60:26:d9:ca:e6:7e:95:df:8b:dc:21:16:23:c3:1e:13:
        81:df:55:0a
-----BEGIN CERTIFICATE-----
MIIDXjCCAkagAwIBAgIBFzANBgkqhkiG9w0BAQUFADCBqzEmMCQGA1UEAxMdV2Vz
dHBvaW50IENlcnRpZmljYXRlIFRlc3QgQ0ExEzARBgNVBAgTCkxhbmNhc2hpcmUx
CzAJBgNVBAYTAlVLMR0wGwYJKoZIhvcNAQkBFg5jYUBleGFtcGxlLmNvbTFAMD4G
A1UEChM3V2VzdHBvaW50IENlcnRpZmljYXRlIFRlc3QgUm9vdCBDZXJ0aWZpY2F0
aW9uIEF1dGhvcml0eTAeFw0xMTA2MjEyMTMyMjBaFw0yMTA2MTgyMTMyMjBaMHMx
EjAQBgNVBAMTCTEyNy4wLjAuMTETMBEGA1UECBMKTGFuY2FzaGlyZTELMAkGA1UE
BhMCVUsxHzAdBgkqhkiG9w0BCQEWEHRlc3RAZXhhbXBsZS5jb20xGjAYBgNVBAoT
EVNvbWUgb3JnYW5pc2F0aW9uMIGfMA0GCSqGSIb3DQEBAQUAA4GNADCBiQKBgQDZ
w/PnULSfr+xjhgnHPeoSNpjRe+SqFf8MTGdLBiz73Qsny/HowSds0XmDKsI+YiCP
8oO0NFAmiY0TjDuJIQ7oyHseks9xHkwedFZRVgVWfrAXGbdBrOOtRIGXhX/AIewK
IEhieDB0nokJvhYrE1AjJgKclqguxEyfx3BGysLyEQIDAQABo0gwRjAJBgNVHRME
AjAAMDkGCCsGAQUFBwEBBC0wKzApBggrBgEFBQcwAYYdaHR0cDovL29jc3AuZXhh
bXBsZS5jb206ODg4OC8wDQYJKoZIhvcNAQEFBQADggEBAGEORrzaypaL2Fg2hR21
ukvocK7gommxqTa6jdkovaXbpI7xL/GDXFA7LP0ZBxdO6ZQJNTdPb6UpAOTlDnUq
1esD1MPmbp/mBnd6UCguh9qQoBz4miRhFfSatOpj037mParRGv61B1OJJhxA7H87
8GwlMDymfLHhxFzJ9LpUL57xjcl/ZpxvhE4/qlvjOdsdID+rXCh2shUj7EDdKM8Z
aVwS98mA65IQU5lW8NZU4IWj5j6jexfobqQyb9F48SVpDjQ3a9XeoZT6pnqzc/Ot
ghOBnTdCr3ZMC4z+dWlfB3RC7uOD7bCzoLTTxgb1YCbZyuZ+ld+L3CEWI8MeE4Hf
VQo=
-----END CERTIFICATE-----
